
;CodeVisionAVR C Compiler V3.34 Evaluation
;(C) Copyright 1998-2018 Pavel Haiduc, HP InfoTech s.r.l.
;http://www.hpinfotech.com

;Build configuration    : Debug
;Chip type              : ATmega32
;Program type           : Application
;Clock frequency        : 8,000000 MHz
;Memory model           : Small
;Optimize for           : Size
;(s)printf features     : int, width
;(s)scanf features      : int, width
;External RAM size      : 0
;Data Stack size        : 512 byte(s)
;Heap size              : 0 byte(s)
;Promote 'char' to 'int': Yes
;'char' is unsigned     : Yes
;8 bit enums            : Yes
;Global 'const' stored in FLASH: Yes
;Enhanced function parameter passing: Mode 2
;Enhanced core instructions: On
;Automatic register allocation for global variables: On
;Smart register allocation: On

	#define _MODEL_SMALL_

	#pragma AVRPART ADMIN PART_NAME ATmega32
	#pragma AVRPART MEMORY PROG_FLASH 32768
	#pragma AVRPART MEMORY EEPROM 1024
	#pragma AVRPART MEMORY INT_SRAM SIZE 2048
	#pragma AVRPART MEMORY INT_SRAM START_ADDR 0x60

	#define CALL_SUPPORTED 1

	.LISTMAC
	.EQU UDRE=0x5
	.EQU RXC=0x7
	.EQU USR=0xB
	.EQU UDR=0xC
	.EQU SPSR=0xE
	.EQU SPDR=0xF
	.EQU EERE=0x0
	.EQU EEWE=0x1
	.EQU EEMWE=0x2
	.EQU EECR=0x1C
	.EQU EEDR=0x1D
	.EQU EEARL=0x1E
	.EQU EEARH=0x1F
	.EQU WDTCR=0x21
	.EQU MCUCR=0x35
	.EQU GICR=0x3B
	.EQU SPL=0x3D
	.EQU SPH=0x3E
	.EQU SREG=0x3F

	.DEF R0X0=R0
	.DEF R0X1=R1
	.DEF R0X2=R2
	.DEF R0X3=R3
	.DEF R0X4=R4
	.DEF R0X5=R5
	.DEF R0X6=R6
	.DEF R0X7=R7
	.DEF R0X8=R8
	.DEF R0X9=R9
	.DEF R0XA=R10
	.DEF R0XB=R11
	.DEF R0XC=R12
	.DEF R0XD=R13
	.DEF R0XE=R14
	.DEF R0XF=R15
	.DEF R0X10=R16
	.DEF R0X11=R17
	.DEF R0X12=R18
	.DEF R0X13=R19
	.DEF R0X14=R20
	.DEF R0X15=R21
	.DEF R0X16=R22
	.DEF R0X17=R23
	.DEF R0X18=R24
	.DEF R0X19=R25
	.DEF R0X1A=R26
	.DEF R0X1B=R27
	.DEF R0X1C=R28
	.DEF R0X1D=R29
	.DEF R0X1E=R30
	.DEF R0X1F=R31

	.EQU __SRAM_START=0x0060
	.EQU __SRAM_END=0x085F
	.EQU __DSTACK_SIZE=0x0200
	.EQU __HEAP_SIZE=0x0000
	.EQU __CLEAR_SRAM_SIZE=__SRAM_END-__SRAM_START+1

	.MACRO __CPD1N
	CPI  R30,LOW(@0)
	LDI  R26,HIGH(@0)
	CPC  R31,R26
	LDI  R26,BYTE3(@0)
	CPC  R22,R26
	LDI  R26,BYTE4(@0)
	CPC  R23,R26
	.ENDM

	.MACRO __CPD2N
	CPI  R26,LOW(@0)
	LDI  R30,HIGH(@0)
	CPC  R27,R30
	LDI  R30,BYTE3(@0)
	CPC  R24,R30
	LDI  R30,BYTE4(@0)
	CPC  R25,R30
	.ENDM

	.MACRO __CPWRR
	CP   R@0,R@2
	CPC  R@1,R@3
	.ENDM

	.MACRO __CPWRN
	CPI  R@0,LOW(@2)
	LDI  R30,HIGH(@2)
	CPC  R@1,R30
	.ENDM

	.MACRO __ADDB1MN
	SUBI R30,LOW(-@0-(@1))
	.ENDM

	.MACRO __ADDB2MN
	SUBI R26,LOW(-@0-(@1))
	.ENDM

	.MACRO __ADDW1MN
	SUBI R30,LOW(-@0-(@1))
	SBCI R31,HIGH(-@0-(@1))
	.ENDM

	.MACRO __ADDW2MN
	SUBI R26,LOW(-@0-(@1))
	SBCI R27,HIGH(-@0-(@1))
	.ENDM

	.MACRO __ADDW1FN
	SUBI R30,LOW(-2*@0-(@1))
	SBCI R31,HIGH(-2*@0-(@1))
	.ENDM

	.MACRO __ADDD1FN
	SUBI R30,LOW(-2*@0-(@1))
	SBCI R31,HIGH(-2*@0-(@1))
	SBCI R22,BYTE3(-2*@0-(@1))
	.ENDM

	.MACRO __ADDD1N
	SUBI R30,LOW(-@0)
	SBCI R31,HIGH(-@0)
	SBCI R22,BYTE3(-@0)
	SBCI R23,BYTE4(-@0)
	.ENDM

	.MACRO __ADDD2N
	SUBI R26,LOW(-@0)
	SBCI R27,HIGH(-@0)
	SBCI R24,BYTE3(-@0)
	SBCI R25,BYTE4(-@0)
	.ENDM

	.MACRO __SUBD1N
	SUBI R30,LOW(@0)
	SBCI R31,HIGH(@0)
	SBCI R22,BYTE3(@0)
	SBCI R23,BYTE4(@0)
	.ENDM

	.MACRO __SUBD2N
	SUBI R26,LOW(@0)
	SBCI R27,HIGH(@0)
	SBCI R24,BYTE3(@0)
	SBCI R25,BYTE4(@0)
	.ENDM

	.MACRO __ANDBMNN
	LDS  R30,@0+(@1)
	ANDI R30,LOW(@2)
	STS  @0+(@1),R30
	.ENDM

	.MACRO __ANDWMNN
	LDS  R30,@0+(@1)
	ANDI R30,LOW(@2)
	STS  @0+(@1),R30
	LDS  R30,@0+(@1)+1
	ANDI R30,HIGH(@2)
	STS  @0+(@1)+1,R30
	.ENDM

	.MACRO __ANDD1N
	ANDI R30,LOW(@0)
	ANDI R31,HIGH(@0)
	ANDI R22,BYTE3(@0)
	ANDI R23,BYTE4(@0)
	.ENDM

	.MACRO __ANDD2N
	ANDI R26,LOW(@0)
	ANDI R27,HIGH(@0)
	ANDI R24,BYTE3(@0)
	ANDI R25,BYTE4(@0)
	.ENDM

	.MACRO __ORBMNN
	LDS  R30,@0+(@1)
	ORI  R30,LOW(@2)
	STS  @0+(@1),R30
	.ENDM

	.MACRO __ORWMNN
	LDS  R30,@0+(@1)
	ORI  R30,LOW(@2)
	STS  @0+(@1),R30
	LDS  R30,@0+(@1)+1
	ORI  R30,HIGH(@2)
	STS  @0+(@1)+1,R30
	.ENDM

	.MACRO __ORD1N
	ORI  R30,LOW(@0)
	ORI  R31,HIGH(@0)
	ORI  R22,BYTE3(@0)
	ORI  R23,BYTE4(@0)
	.ENDM

	.MACRO __ORD2N
	ORI  R26,LOW(@0)
	ORI  R27,HIGH(@0)
	ORI  R24,BYTE3(@0)
	ORI  R25,BYTE4(@0)
	.ENDM

	.MACRO __DELAY_USB
	LDI  R24,LOW(@0)
__DELAY_USB_LOOP:
	DEC  R24
	BRNE __DELAY_USB_LOOP
	.ENDM

	.MACRO __DELAY_USW
	LDI  R24,LOW(@0)
	LDI  R25,HIGH(@0)
__DELAY_USW_LOOP:
	SBIW R24,1
	BRNE __DELAY_USW_LOOP
	.ENDM

	.MACRO __GETD1S
	LDD  R30,Y+@0
	LDD  R31,Y+@0+1
	LDD  R22,Y+@0+2
	LDD  R23,Y+@0+3
	.ENDM

	.MACRO __GETD2S
	LDD  R26,Y+@0
	LDD  R27,Y+@0+1
	LDD  R24,Y+@0+2
	LDD  R25,Y+@0+3
	.ENDM

	.MACRO __PUTD1S
	STD  Y+@0,R30
	STD  Y+@0+1,R31
	STD  Y+@0+2,R22
	STD  Y+@0+3,R23
	.ENDM

	.MACRO __PUTD2S
	STD  Y+@0,R26
	STD  Y+@0+1,R27
	STD  Y+@0+2,R24
	STD  Y+@0+3,R25
	.ENDM

	.MACRO __PUTDZ2
	STD  Z+@0,R26
	STD  Z+@0+1,R27
	STD  Z+@0+2,R24
	STD  Z+@0+3,R25
	.ENDM

	.MACRO __CLRD1S
	STD  Y+@0,R30
	STD  Y+@0+1,R30
	STD  Y+@0+2,R30
	STD  Y+@0+3,R30
	.ENDM

	.MACRO __POINTB1MN
	LDI  R30,LOW(@0+(@1))
	.ENDM

	.MACRO __POINTW1MN
	LDI  R30,LOW(@0+(@1))
	LDI  R31,HIGH(@0+(@1))
	.ENDM

	.MACRO __POINTD1M
	LDI  R30,LOW(@0)
	LDI  R31,HIGH(@0)
	LDI  R22,BYTE3(@0)
	LDI  R23,BYTE4(@0)
	.ENDM

	.MACRO __POINTW1FN
	LDI  R30,LOW(2*@0+(@1))
	LDI  R31,HIGH(2*@0+(@1))
	.ENDM

	.MACRO __POINTD1FN
	LDI  R30,LOW(2*@0+(@1))
	LDI  R31,HIGH(2*@0+(@1))
	LDI  R22,BYTE3(2*@0+(@1))
	LDI  R23,BYTE4(2*@0+(@1))
	.ENDM

	.MACRO __POINTB2MN
	LDI  R26,LOW(@0+(@1))
	.ENDM

	.MACRO __POINTW2MN
	LDI  R26,LOW(@0+(@1))
	LDI  R27,HIGH(@0+(@1))
	.ENDM

	.MACRO __POINTD2M
	LDI  R26,LOW(@0)
	LDI  R27,HIGH(@0)
	LDI  R24,BYTE3(@0)
	LDI  R25,BYTE4(@0)
	.ENDM

	.MACRO __POINTW2FN
	LDI  R26,LOW(2*@0+(@1))
	LDI  R27,HIGH(2*@0+(@1))
	.ENDM

	.MACRO __POINTD2FN
	LDI  R26,LOW(2*@0+(@1))
	LDI  R27,HIGH(2*@0+(@1))
	LDI  R24,BYTE3(2*@0+(@1))
	LDI  R25,BYTE4(2*@0+(@1))
	.ENDM

	.MACRO __POINTBRM
	LDI  R@0,LOW(@1)
	.ENDM

	.MACRO __POINTWRM
	LDI  R@0,LOW(@2)
	LDI  R@1,HIGH(@2)
	.ENDM

	.MACRO __POINTBRMN
	LDI  R@0,LOW(@1+(@2))
	.ENDM

	.MACRO __POINTWRMN
	LDI  R@0,LOW(@2+(@3))
	LDI  R@1,HIGH(@2+(@3))
	.ENDM

	.MACRO __POINTWRFN
	LDI  R@0,LOW(@2*2+(@3))
	LDI  R@1,HIGH(@2*2+(@3))
	.ENDM

	.MACRO __GETD1N
	LDI  R30,LOW(@0)
	LDI  R31,HIGH(@0)
	LDI  R22,BYTE3(@0)
	LDI  R23,BYTE4(@0)
	.ENDM

	.MACRO __GETD2N
	LDI  R26,LOW(@0)
	LDI  R27,HIGH(@0)
	LDI  R24,BYTE3(@0)
	LDI  R25,BYTE4(@0)
	.ENDM

	.MACRO __GETB1MN
	LDS  R30,@0+(@1)
	.ENDM

	.MACRO __GETB1HMN
	LDS  R31,@0+(@1)
	.ENDM

	.MACRO __GETW1MN
	LDS  R30,@0+(@1)
	LDS  R31,@0+(@1)+1
	.ENDM

	.MACRO __GETD1MN
	LDS  R30,@0+(@1)
	LDS  R31,@0+(@1)+1
	LDS  R22,@0+(@1)+2
	LDS  R23,@0+(@1)+3
	.ENDM

	.MACRO __GETBRMN
	LDS  R@0,@1+(@2)
	.ENDM

	.MACRO __GETWRMN
	LDS  R@0,@2+(@3)
	LDS  R@1,@2+(@3)+1
	.ENDM

	.MACRO __GETWRZ
	LDD  R@0,Z+@2
	LDD  R@1,Z+@2+1
	.ENDM

	.MACRO __GETD2Z
	LDD  R26,Z+@0
	LDD  R27,Z+@0+1
	LDD  R24,Z+@0+2
	LDD  R25,Z+@0+3
	.ENDM

	.MACRO __GETB2MN
	LDS  R26,@0+(@1)
	.ENDM

	.MACRO __GETW2MN
	LDS  R26,@0+(@1)
	LDS  R27,@0+(@1)+1
	.ENDM

	.MACRO __GETD2MN
	LDS  R26,@0+(@1)
	LDS  R27,@0+(@1)+1
	LDS  R24,@0+(@1)+2
	LDS  R25,@0+(@1)+3
	.ENDM

	.MACRO __PUTB1MN
	STS  @0+(@1),R30
	.ENDM

	.MACRO __PUTW1MN
	STS  @0+(@1),R30
	STS  @0+(@1)+1,R31
	.ENDM

	.MACRO __PUTD1MN
	STS  @0+(@1),R30
	STS  @0+(@1)+1,R31
	STS  @0+(@1)+2,R22
	STS  @0+(@1)+3,R23
	.ENDM

	.MACRO __PUTB1EN
	LDI  R26,LOW(@0+(@1))
	LDI  R27,HIGH(@0+(@1))
	CALL __EEPROMWRB
	.ENDM

	.MACRO __PUTW1EN
	LDI  R26,LOW(@0+(@1))
	LDI  R27,HIGH(@0+(@1))
	CALL __EEPROMWRW
	.ENDM

	.MACRO __PUTD1EN
	LDI  R26,LOW(@0+(@1))
	LDI  R27,HIGH(@0+(@1))
	CALL __EEPROMWRD
	.ENDM

	.MACRO __PUTBR0MN
	STS  @0+(@1),R0
	.ENDM

	.MACRO __PUTBMRN
	STS  @0+(@1),R@2
	.ENDM

	.MACRO __PUTWMRN
	STS  @0+(@1),R@2
	STS  @0+(@1)+1,R@3
	.ENDM

	.MACRO __PUTBZR
	STD  Z+@1,R@0
	.ENDM

	.MACRO __PUTWZR
	STD  Z+@2,R@0
	STD  Z+@2+1,R@1
	.ENDM

	.MACRO __GETW1R
	MOV  R30,R@0
	MOV  R31,R@1
	.ENDM

	.MACRO __GETW2R
	MOV  R26,R@0
	MOV  R27,R@1
	.ENDM

	.MACRO __GETWRN
	LDI  R@0,LOW(@2)
	LDI  R@1,HIGH(@2)
	.ENDM

	.MACRO __PUTW1R
	MOV  R@0,R30
	MOV  R@1,R31
	.ENDM

	.MACRO __PUTW2R
	MOV  R@0,R26
	MOV  R@1,R27
	.ENDM

	.MACRO __ADDWRN
	SUBI R@0,LOW(-@2)
	SBCI R@1,HIGH(-@2)
	.ENDM

	.MACRO __ADDWRR
	ADD  R@0,R@2
	ADC  R@1,R@3
	.ENDM

	.MACRO __SUBWRN
	SUBI R@0,LOW(@2)
	SBCI R@1,HIGH(@2)
	.ENDM

	.MACRO __SUBWRR
	SUB  R@0,R@2
	SBC  R@1,R@3
	.ENDM

	.MACRO __ANDWRN
	ANDI R@0,LOW(@2)
	ANDI R@1,HIGH(@2)
	.ENDM

	.MACRO __ANDWRR
	AND  R@0,R@2
	AND  R@1,R@3
	.ENDM

	.MACRO __ORWRN
	ORI  R@0,LOW(@2)
	ORI  R@1,HIGH(@2)
	.ENDM

	.MACRO __ORWRR
	OR   R@0,R@2
	OR   R@1,R@3
	.ENDM

	.MACRO __EORWRR
	EOR  R@0,R@2
	EOR  R@1,R@3
	.ENDM

	.MACRO __GETWRS
	LDD  R@0,Y+@2
	LDD  R@1,Y+@2+1
	.ENDM

	.MACRO __PUTBSR
	STD  Y+@1,R@0
	.ENDM

	.MACRO __PUTWSR
	STD  Y+@2,R@0
	STD  Y+@2+1,R@1
	.ENDM

	.MACRO __MOVEWRR
	MOV  R@0,R@2
	MOV  R@1,R@3
	.ENDM

	.MACRO __INWR
	IN   R@0,@2
	IN   R@1,@2+1
	.ENDM

	.MACRO __OUTWR
	OUT  @2+1,R@1
	OUT  @2,R@0
	.ENDM

	.MACRO __CALL1MN
	LDS  R30,@0+(@1)
	LDS  R31,@0+(@1)+1
	ICALL
	.ENDM

	.MACRO __CALL1FN
	LDI  R30,LOW(2*@0+(@1))
	LDI  R31,HIGH(2*@0+(@1))
	CALL __GETW1PF
	ICALL
	.ENDM

	.MACRO __CALL2EN
	PUSH R26
	PUSH R27
	LDI  R26,LOW(@0+(@1))
	LDI  R27,HIGH(@0+(@1))
	CALL __EEPROMRDW
	POP  R27
	POP  R26
	ICALL
	.ENDM

	.MACRO __CALL2EX
	SUBI R26,LOW(-@0)
	SBCI R27,HIGH(-@0)
	CALL __EEPROMRDD
	ICALL
	.ENDM

	.MACRO __GETW1STACK
	IN   R30,SPL
	IN   R31,SPH
	ADIW R30,@0+1
	LD   R0,Z+
	LD   R31,Z
	MOV  R30,R0
	.ENDM

	.MACRO __GETD1STACK
	IN   R30,SPL
	IN   R31,SPH
	ADIW R30,@0+1
	LD   R0,Z+
	LD   R1,Z+
	LD   R22,Z
	MOVW R30,R0
	.ENDM

	.MACRO __NBST
	BST  R@0,@1
	IN   R30,SREG
	LDI  R31,0x40
	EOR  R30,R31
	OUT  SREG,R30
	.ENDM


	.MACRO __PUTB1SN
	LDD  R26,Y+@0
	LDD  R27,Y+@0+1
	SUBI R26,LOW(-@1)
	SBCI R27,HIGH(-@1)
	ST   X,R30
	.ENDM

	.MACRO __PUTW1SN
	LDD  R26,Y+@0
	LDD  R27,Y+@0+1
	SUBI R26,LOW(-@1)
	SBCI R27,HIGH(-@1)
	ST   X+,R30
	ST   X,R31
	.ENDM

	.MACRO __PUTD1SN
	LDD  R26,Y+@0
	LDD  R27,Y+@0+1
	SUBI R26,LOW(-@1)
	SBCI R27,HIGH(-@1)
	CALL __PUTDP1
	.ENDM

	.MACRO __PUTB1SNS
	LDD  R26,Y+@0
	LDD  R27,Y+@0+1
	ADIW R26,@1
	ST   X,R30
	.ENDM

	.MACRO __PUTW1SNS
	LDD  R26,Y+@0
	LDD  R27,Y+@0+1
	ADIW R26,@1
	ST   X+,R30
	ST   X,R31
	.ENDM

	.MACRO __PUTD1SNS
	LDD  R26,Y+@0
	LDD  R27,Y+@0+1
	ADIW R26,@1
	CALL __PUTDP1
	.ENDM

	.MACRO __PUTB1PMN
	LDS  R26,@0
	LDS  R27,@0+1
	SUBI R26,LOW(-@1)
	SBCI R27,HIGH(-@1)
	ST   X,R30
	.ENDM

	.MACRO __PUTW1PMN
	LDS  R26,@0
	LDS  R27,@0+1
	SUBI R26,LOW(-@1)
	SBCI R27,HIGH(-@1)
	ST   X+,R30
	ST   X,R31
	.ENDM

	.MACRO __PUTD1PMN
	LDS  R26,@0
	LDS  R27,@0+1
	SUBI R26,LOW(-@1)
	SBCI R27,HIGH(-@1)
	CALL __PUTDP1
	.ENDM

	.MACRO __PUTB1PMNS
	LDS  R26,@0
	LDS  R27,@0+1
	ADIW R26,@1
	ST   X,R30
	.ENDM

	.MACRO __PUTW1PMNS
	LDS  R26,@0
	LDS  R27,@0+1
	ADIW R26,@1
	ST   X+,R30
	ST   X,R31
	.ENDM

	.MACRO __PUTD1PMNS
	LDS  R26,@0
	LDS  R27,@0+1
	ADIW R26,@1
	CALL __PUTDP1
	.ENDM

	.MACRO __PUTB1RN
	MOVW R26,R@0
	SUBI R26,LOW(-@1)
	SBCI R27,HIGH(-@1)
	ST   X,R30
	.ENDM

	.MACRO __PUTW1RN
	MOVW R26,R@0
	SUBI R26,LOW(-@1)
	SBCI R27,HIGH(-@1)
	ST   X+,R30
	ST   X,R31
	.ENDM

	.MACRO __PUTD1RN
	MOVW R26,R@0
	SUBI R26,LOW(-@1)
	SBCI R27,HIGH(-@1)
	CALL __PUTDP1
	.ENDM

	.MACRO __PUTB1RNS
	MOVW R26,R@0
	ADIW R26,@1
	ST   X,R30
	.ENDM

	.MACRO __PUTW1RNS
	MOVW R26,R@0
	ADIW R26,@1
	ST   X+,R30
	ST   X,R31
	.ENDM

	.MACRO __PUTD1RNS
	MOVW R26,R@0
	ADIW R26,@1
	CALL __PUTDP1
	.ENDM

	.MACRO __PUTB1RON
	MOV  R26,R@0
	MOV  R27,R@1
	SUBI R26,LOW(-@2)
	SBCI R27,HIGH(-@2)
	ST   X,R30
	.ENDM

	.MACRO __PUTW1RON
	MOV  R26,R@0
	MOV  R27,R@1
	SUBI R26,LOW(-@2)
	SBCI R27,HIGH(-@2)
	ST   X+,R30
	ST   X,R31
	.ENDM

	.MACRO __PUTD1RON
	MOV  R26,R@0
	MOV  R27,R@1
	SUBI R26,LOW(-@2)
	SBCI R27,HIGH(-@2)
	CALL __PUTDP1
	.ENDM

	.MACRO __PUTB1RONS
	MOV  R26,R@0
	MOV  R27,R@1
	ADIW R26,@2
	ST   X,R30
	.ENDM

	.MACRO __PUTW1RONS
	MOV  R26,R@0
	MOV  R27,R@1
	ADIW R26,@2
	ST   X+,R30
	ST   X,R31
	.ENDM

	.MACRO __PUTD1RONS
	MOV  R26,R@0
	MOV  R27,R@1
	ADIW R26,@2
	CALL __PUTDP1
	.ENDM


	.MACRO __GETB1SX
	MOVW R30,R28
	SUBI R30,LOW(-@0)
	SBCI R31,HIGH(-@0)
	LD   R30,Z
	.ENDM

	.MACRO __GETB1HSX
	MOVW R30,R28
	SUBI R30,LOW(-@0)
	SBCI R31,HIGH(-@0)
	LD   R31,Z
	.ENDM

	.MACRO __GETW1SX
	MOVW R30,R28
	SUBI R30,LOW(-@0)
	SBCI R31,HIGH(-@0)
	LD   R0,Z+
	LD   R31,Z
	MOV  R30,R0
	.ENDM

	.MACRO __GETD1SX
	MOVW R30,R28
	SUBI R30,LOW(-@0)
	SBCI R31,HIGH(-@0)
	LD   R0,Z+
	LD   R1,Z+
	LD   R22,Z+
	LD   R23,Z
	MOVW R30,R0
	.ENDM

	.MACRO __GETB2SX
	MOVW R26,R28
	SUBI R26,LOW(-@0)
	SBCI R27,HIGH(-@0)
	LD   R26,X
	.ENDM

	.MACRO __GETW2SX
	MOVW R26,R28
	SUBI R26,LOW(-@0)
	SBCI R27,HIGH(-@0)
	LD   R0,X+
	LD   R27,X
	MOV  R26,R0
	.ENDM

	.MACRO __GETD2SX
	MOVW R26,R28
	SUBI R26,LOW(-@0)
	SBCI R27,HIGH(-@0)
	LD   R0,X+
	LD   R1,X+
	LD   R24,X+
	LD   R25,X
	MOVW R26,R0
	.ENDM

	.MACRO __GETBRSX
	MOVW R30,R28
	SUBI R30,LOW(-@1)
	SBCI R31,HIGH(-@1)
	LD   R@0,Z
	.ENDM

	.MACRO __GETWRSX
	MOVW R30,R28
	SUBI R30,LOW(-@2)
	SBCI R31,HIGH(-@2)
	LD   R@0,Z+
	LD   R@1,Z
	.ENDM

	.MACRO __GETBRSX2
	MOVW R26,R28
	SUBI R26,LOW(-@1)
	SBCI R27,HIGH(-@1)
	LD   R@0,X
	.ENDM

	.MACRO __GETWRSX2
	MOVW R26,R28
	SUBI R26,LOW(-@2)
	SBCI R27,HIGH(-@2)
	LD   R@0,X+
	LD   R@1,X
	.ENDM

	.MACRO __LSLW8SX
	MOVW R30,R28
	SUBI R30,LOW(-@0)
	SBCI R31,HIGH(-@0)
	LD   R31,Z
	CLR  R30
	.ENDM

	.MACRO __PUTB1SX
	MOVW R26,R28
	SUBI R26,LOW(-@0)
	SBCI R27,HIGH(-@0)
	ST   X,R30
	.ENDM

	.MACRO __PUTW1SX
	MOVW R26,R28
	SUBI R26,LOW(-@0)
	SBCI R27,HIGH(-@0)
	ST   X+,R30
	ST   X,R31
	.ENDM

	.MACRO __PUTD1SX
	MOVW R26,R28
	SUBI R26,LOW(-@0)
	SBCI R27,HIGH(-@0)
	ST   X+,R30
	ST   X+,R31
	ST   X+,R22
	ST   X,R23
	.ENDM

	.MACRO __CLRW1SX
	MOVW R26,R28
	SUBI R26,LOW(-@0)
	SBCI R27,HIGH(-@0)
	ST   X+,R30
	ST   X,R30
	.ENDM

	.MACRO __CLRD1SX
	MOVW R26,R28
	SUBI R26,LOW(-@0)
	SBCI R27,HIGH(-@0)
	ST   X+,R30
	ST   X+,R30
	ST   X+,R30
	ST   X,R30
	.ENDM

	.MACRO __PUTB2SX
	MOVW R30,R28
	SUBI R30,LOW(-@0)
	SBCI R31,HIGH(-@0)
	ST   Z,R26
	.ENDM

	.MACRO __PUTW2SX
	MOVW R30,R28
	SUBI R30,LOW(-@0)
	SBCI R31,HIGH(-@0)
	ST   Z+,R26
	ST   Z,R27
	.ENDM

	.MACRO __PUTD2SX
	MOVW R30,R28
	SUBI R30,LOW(-@0)
	SBCI R31,HIGH(-@0)
	ST   Z+,R26
	ST   Z+,R27
	ST   Z+,R24
	ST   Z,R25
	.ENDM

	.MACRO __PUTBSRX
	MOVW R30,R28
	SUBI R30,LOW(-@1)
	SBCI R31,HIGH(-@1)
	ST   Z,R@0
	.ENDM

	.MACRO __PUTWSRX
	MOVW R30,R28
	SUBI R30,LOW(-@2)
	SBCI R31,HIGH(-@2)
	ST   Z+,R@0
	ST   Z,R@1
	.ENDM

	.MACRO __PUTB1SNX
	MOVW R26,R28
	SUBI R26,LOW(-@0)
	SBCI R27,HIGH(-@0)
	LD   R0,X+
	LD   R27,X
	MOV  R26,R0
	SUBI R26,LOW(-@1)
	SBCI R27,HIGH(-@1)
	ST   X,R30
	.ENDM

	.MACRO __PUTW1SNX
	MOVW R26,R28
	SUBI R26,LOW(-@0)
	SBCI R27,HIGH(-@0)
	LD   R0,X+
	LD   R27,X
	MOV  R26,R0
	SUBI R26,LOW(-@1)
	SBCI R27,HIGH(-@1)
	ST   X+,R30
	ST   X,R31
	.ENDM

	.MACRO __PUTD1SNX
	MOVW R26,R28
	SUBI R26,LOW(-@0)
	SBCI R27,HIGH(-@0)
	LD   R0,X+
	LD   R27,X
	MOV  R26,R0
	SUBI R26,LOW(-@1)
	SBCI R27,HIGH(-@1)
	ST   X+,R30
	ST   X+,R31
	ST   X+,R22
	ST   X,R23
	.ENDM

	.MACRO __MULBRR
	MULS R@0,R@1
	MOVW R30,R0
	.ENDM

	.MACRO __MULBRRU
	MUL  R@0,R@1
	MOVW R30,R0
	.ENDM

	.MACRO __MULBRR0
	MULS R@0,R@1
	.ENDM

	.MACRO __MULBRRU0
	MUL  R@0,R@1
	.ENDM

	.MACRO __MULBNWRU
	LDI  R26,@2
	MUL  R26,R@0
	MOVW R30,R0
	MUL  R26,R@1
	ADD  R31,R0
	.ENDM

;NAME DEFINITIONS FOR GLOBAL VARIABLES ALLOCATED TO REGISTERS
	.DEF _lecture=R5
	.DEF _touche=R4
	.DEF __lcd_x=R7
	.DEF __lcd_y=R6
	.DEF __lcd_maxx=R9

	.CSEG
	.ORG 0x00

;START OF CODE MARKER
__START_OF_CODE:

;INTERRUPT VECTORS
	JMP  __RESET
	JMP  _ext_int0_isr
	JMP  0x00
	JMP  0x00
	JMP  0x00
	JMP  0x00
	JMP  0x00
	JMP  0x00
	JMP  0x00
	JMP  0x00
	JMP  0x00
	JMP  0x00
	JMP  0x00
	JMP  0x00
	JMP  0x00
	JMP  0x00
	JMP  0x00
	JMP  0x00
	JMP  0x00
	JMP  0x00
	JMP  0x00

_tbl10_G101:
	.DB  0x10,0x27,0xE8,0x3,0x64,0x0,0xA,0x0
	.DB  0x1,0x0
_tbl16_G101:
	.DB  0x0,0x10,0x0,0x1,0x10,0x0,0x1,0x0

;GLOBAL REGISTER VARIABLES INITIALIZATION
__REG_VARS:
	.DB  0x0

_0x3:
	.DB  0x63,0x6F,0x64,0x65,0x20,0x74,0x6F,0x75
	.DB  0x63,0x68,0x65,0x20,0x3A,0x20
_0x4:
	.DB  0x54,0x6F,0x75,0x63,0x68,0x65,0x20,0x20
	.DB  0x20,0x20,0x20,0x20,0x3A,0x20
_0x2000003:
	.DB  0x80,0xC0

__GLOBAL_INI_TBL:
	.DW  0x01
	.DW  0x05
	.DW  __REG_VARS*2

	.DW  0x0E
	.DW  _ligne1
	.DW  _0x3*2

	.DW  0x0E
	.DW  _ligne2
	.DW  _0x4*2

	.DW  0x02
	.DW  __base_y_G100
	.DW  _0x2000003*2

_0xFFFFFFFF:
	.DW  0

#define __GLOBAL_INI_TBL_PRESENT 1

__RESET:
	CLI
	CLR  R30
	OUT  EECR,R30

;INTERRUPT VECTORS ARE PLACED
;AT THE START OF FLASH
	LDI  R31,1
	OUT  GICR,R31
	OUT  GICR,R30
	OUT  MCUCR,R30

;CLEAR R2-R14
	LDI  R24,(14-2)+1
	LDI  R26,2
	CLR  R27
__CLEAR_REG:
	ST   X+,R30
	DEC  R24
	BRNE __CLEAR_REG

;CLEAR SRAM
	LDI  R24,LOW(__CLEAR_SRAM_SIZE)
	LDI  R25,HIGH(__CLEAR_SRAM_SIZE)
	LDI  R26,__SRAM_START
__CLEAR_SRAM:
	ST   X+,R30
	SBIW R24,1
	BRNE __CLEAR_SRAM

;GLOBAL VARIABLES INITIALIZATION
	LDI  R30,LOW(__GLOBAL_INI_TBL*2)
	LDI  R31,HIGH(__GLOBAL_INI_TBL*2)
__GLOBAL_INI_NEXT:
	LPM  R24,Z+
	LPM  R25,Z+
	SBIW R24,0
	BREQ __GLOBAL_INI_END
	LPM  R26,Z+
	LPM  R27,Z+
	LPM  R0,Z+
	LPM  R1,Z+
	MOVW R22,R30
	MOVW R30,R0
__GLOBAL_INI_LOOP:
	LPM  R0,Z+
	ST   X+,R0
	SBIW R24,1
	BRNE __GLOBAL_INI_LOOP
	MOVW R30,R22
	RJMP __GLOBAL_INI_NEXT
__GLOBAL_INI_END:

;HARDWARE STACK POINTER INITIALIZATION
	LDI  R30,LOW(__SRAM_END-__HEAP_SIZE)
	OUT  SPL,R30
	LDI  R30,HIGH(__SRAM_END-__HEAP_SIZE)
	OUT  SPH,R30

;DATA STACK POINTER INITIALIZATION
	LDI  R28,LOW(__SRAM_START+__DSTACK_SIZE)
	LDI  R29,HIGH(__SRAM_START+__DSTACK_SIZE)

	JMP  _main

	.ESEG
	.ORG 0x00

	.DSEG
	.ORG 0x260

	.CSEG
;/*******************************************************
;This program was created by the CodeWizardAVR V3.34
;Automatic Program Generator
;© Copyright 1998-2018 Pavel Haiduc, HP InfoTech s.r.l.
;http://www.hpinfotech.com
;
;Project :
;Version :
;Date    : 22/03/2019
;Author  :
;Company :
;Comments:
;
;
;Chip type               : ATmega32
;Program type            : Application
;AVR Core Clock frequency: 8,000000 MHz
;Memory model            : Small
;External RAM size       : 0
;Data Stack size         : 512
;*******************************************************/
;
;#include <mega32.h>
	#ifndef __SLEEP_DEFINED__
	#define __SLEEP_DEFINED__
	.EQU __se_bit=0x80
	.EQU __sm_mask=0x70
	.EQU __sm_powerdown=0x20
	.EQU __sm_powersave=0x30
	.EQU __sm_standby=0x60
	.EQU __sm_ext_standby=0x70
	.EQU __sm_adc_noise_red=0x10
	.SET power_ctrl_reg=mcucr
	#endif
;#include <delay.h>
;
;// Alphanumeric LCD functions
;#include <alcd.h>
;
;// Declare your global variables here
;unsigned char lecture = 0x00;
;unsigned char touche;
;char ligne1[17] = "code touche : "; // il faudra afficher la valeur sur les positions 14 et 15

	.DSEG
;char ligne2[17] = "Touche      : "; // il faudra afficher la valeur sur la position 14
;
;// External Interrupt 0 service routine
;interrupt [EXT_INT0] void ext_int0_isr(void)
; 0000 0025 {

	.CSEG
_ext_int0_isr:
; .FSTART _ext_int0_isr
	ST   -Y,R0
	ST   -Y,R1
	ST   -Y,R15
	ST   -Y,R22
	ST   -Y,R23
	ST   -Y,R24
	ST   -Y,R25
	ST   -Y,R26
	ST   -Y,R27
	ST   -Y,R30
	ST   -Y,R31
	IN   R30,SREG
	ST   -Y,R30
; 0000 0026 // Place your code here
; 0000 0027 delay_ms(10);
	LDI  R26,LOW(10)
	LDI  R27,0
	RCALL _delay_ms
; 0000 0028 lecture = PINC;
	IN   R5,19
; 0000 0029 DDRC = 0xF0;
	LDI  R30,LOW(240)
	OUT  0x14,R30
; 0000 002A PORTC = lecture;
	OUT  0x15,R5
; 0000 002B touche = PINC + lecture;
	IN   R30,0x13
	ADD  R30,R5
	MOV  R4,R30
; 0000 002C DDRC = 0x0F;
	RCALL SUBOPT_0x0
; 0000 002D PORTC = 0x00;
; 0000 002E delay_ms(100);
	LDI  R26,LOW(100)
	LDI  R27,0
	RCALL _delay_ms
; 0000 002F }
	LD   R30,Y+
	OUT  SREG,R30
	LD   R31,Y+
	LD   R30,Y+
	LD   R27,Y+
	LD   R26,Y+
	LD   R25,Y+
	LD   R24,Y+
	LD   R23,Y+
	LD   R22,Y+
	LD   R15,Y+
	LD   R1,Y+
	LD   R0,Y+
	RETI
; .FEND
;
;void main(void)
; 0000 0032 {
_main:
; .FSTART _main
; 0000 0033 // Declare your local variables here
; 0000 0034 
; 0000 0035 // Input/Output Ports initialization
; 0000 0036 // Port A initialization
; 0000 0037 // Function: Bit7=Out Bit6=Out Bit5=Out Bit4=Out Bit3=Out Bit2=Out Bit1=Out Bit0=Out
; 0000 0038 DDRA=(1<<DDA7) | (1<<DDA6) | (1<<DDA5) | (1<<DDA4) | (1<<DDA3) | (1<<DDA2) | (1<<DDA1) | (1<<DDA0);
	LDI  R30,LOW(255)
	OUT  0x1A,R30
; 0000 0039 // State: Bit7=0 Bit6=0 Bit5=0 Bit4=0 Bit3=0 Bit2=0 Bit1=0 Bit0=0
; 0000 003A PORTA=(0<<PORTA7) | (0<<PORTA6) | (0<<PORTA5) | (0<<PORTA4) | (0<<PORTA3) | (0<<PORTA2) | (0<<PORTA1) | (0<<PORTA0);
	LDI  R30,LOW(0)
	OUT  0x1B,R30
; 0000 003B 
; 0000 003C // Port B initialization
; 0000 003D // Function: Bit7=In Bit6=In Bit5=In Bit4=In Bit3=In Bit2=In Bit1=In Bit0=In
; 0000 003E DDRB=(0<<DDB7) | (0<<DDB6) | (0<<DDB5) | (0<<DDB4) | (0<<DDB3) | (0<<DDB2) | (0<<DDB1) | (0<<DDB0);
	OUT  0x17,R30
; 0000 003F // State: Bit7=T Bit6=T Bit5=T Bit4=T Bit3=T Bit2=T Bit1=T Bit0=T
; 0000 0040 PORTB=(0<<PORTB7) | (0<<PORTB6) | (0<<PORTB5) | (0<<PORTB4) | (0<<PORTB3) | (0<<PORTB2) | (0<<PORTB1) | (0<<PORTB0);
	OUT  0x18,R30
; 0000 0041 
; 0000 0042 // Port C initialization
; 0000 0043 // Function: Bit7=In Bit6=In Bit5=In Bit4=In Bit3=Out Bit2=Out Bit1=Out Bit0=Out
; 0000 0044 DDRC=(0<<DDC7) | (0<<DDC6) | (0<<DDC5) | (0<<DDC4) | (1<<DDC3) | (1<<DDC2) | (1<<DDC1) | (1<<DDC0);
	RCALL SUBOPT_0x0
; 0000 0045 // State: Bit7=T Bit6=T Bit5=T Bit4=T Bit3=0 Bit2=0 Bit1=0 Bit0=0
; 0000 0046 PORTC=(0<<PORTC7) | (0<<PORTC6) | (0<<PORTC5) | (0<<PORTC4) | (0<<PORTC3) | (0<<PORTC2) | (0<<PORTC1) | (0<<PORTC0);
; 0000 0047 
; 0000 0048 // Port D initialization
; 0000 0049 // Function: Bit7=In Bit6=In Bit5=In Bit4=In Bit3=In Bit2=In Bit1=In Bit0=In
; 0000 004A DDRD=(0<<DDD7) | (0<<DDD6) | (0<<DDD5) | (0<<DDD4) | (0<<DDD3) | (0<<DDD2) | (0<<DDD1) | (0<<DDD0);
	LDI  R30,LOW(0)
	OUT  0x11,R30
; 0000 004B // State: Bit7=T Bit6=T Bit5=T Bit4=T Bit3=T Bit2=T Bit1=T Bit0=T
; 0000 004C PORTD=(0<<PORTD7) | (0<<PORTD6) | (0<<PORTD5) | (0<<PORTD4) | (0<<PORTD3) | (0<<PORTD2) | (0<<PORTD1) | (0<<PORTD0);
	OUT  0x12,R30
; 0000 004D 
; 0000 004E // Timer/Counter 0 initialization
; 0000 004F // Clock source: System Clock
; 0000 0050 // Clock value: Timer 0 Stopped
; 0000 0051 // Mode: Normal top=0xFF
; 0000 0052 // OC0 output: Disconnected
; 0000 0053 TCCR0=(0<<WGM00) | (0<<COM01) | (0<<COM00) | (0<<WGM01) | (0<<CS02) | (0<<CS01) | (0<<CS00);
	OUT  0x33,R30
; 0000 0054 TCNT0=0x00;
	OUT  0x32,R30
; 0000 0055 OCR0=0x00;
	OUT  0x3C,R30
; 0000 0056 
; 0000 0057 // Timer/Counter 1 initialization
; 0000 0058 // Clock source: System Clock
; 0000 0059 // Clock value: Timer1 Stopped
; 0000 005A // Mode: Normal top=0xFFFF
; 0000 005B // OC1A output: Disconnected
; 0000 005C // OC1B output: Disconnected
; 0000 005D // Noise Canceler: Off
; 0000 005E // Input Capture on Falling Edge
; 0000 005F // Timer1 Overflow Interrupt: Off
; 0000 0060 // Input Capture Interrupt: Off
; 0000 0061 // Compare A Match Interrupt: Off
; 0000 0062 // Compare B Match Interrupt: Off
; 0000 0063 TCCR1A=(0<<COM1A1) | (0<<COM1A0) | (0<<COM1B1) | (0<<COM1B0) | (0<<WGM11) | (0<<WGM10);
	OUT  0x2F,R30
; 0000 0064 TCCR1B=(0<<ICNC1) | (0<<ICES1) | (0<<WGM13) | (0<<WGM12) | (0<<CS12) | (0<<CS11) | (0<<CS10);
	OUT  0x2E,R30
; 0000 0065 TCNT1H=0x00;
	OUT  0x2D,R30
; 0000 0066 TCNT1L=0x00;
	OUT  0x2C,R30
; 0000 0067 ICR1H=0x00;
	OUT  0x27,R30
; 0000 0068 ICR1L=0x00;
	OUT  0x26,R30
; 0000 0069 OCR1AH=0x00;
	OUT  0x2B,R30
; 0000 006A OCR1AL=0x00;
	OUT  0x2A,R30
; 0000 006B OCR1BH=0x00;
	OUT  0x29,R30
; 0000 006C OCR1BL=0x00;
	OUT  0x28,R30
; 0000 006D 
; 0000 006E // Timer/Counter 2 initialization
; 0000 006F // Clock source: System Clock
; 0000 0070 // Clock value: Timer2 Stopped
; 0000 0071 // Mode: Normal top=0xFF
; 0000 0072 // OC2 output: Disconnected
; 0000 0073 ASSR=0<<AS2;
	OUT  0x22,R30
; 0000 0074 TCCR2=(0<<PWM2) | (0<<COM21) | (0<<COM20) | (0<<CTC2) | (0<<CS22) | (0<<CS21) | (0<<CS20);
	OUT  0x25,R30
; 0000 0075 TCNT2=0x00;
	OUT  0x24,R30
; 0000 0076 OCR2=0x00;
	OUT  0x23,R30
; 0000 0077 
; 0000 0078 // Timer(s)/Counter(s) Interrupt(s) initialization
; 0000 0079 TIMSK=(0<<OCIE2) | (0<<TOIE2) | (0<<TICIE1) | (0<<OCIE1A) | (0<<OCIE1B) | (0<<TOIE1) | (0<<OCIE0) | (0<<TOIE0);
	OUT  0x39,R30
; 0000 007A 
; 0000 007B // External Interrupt(s) initialization
; 0000 007C // INT0: On
; 0000 007D // INT0 Mode: Rising Edge
; 0000 007E // INT1: Off
; 0000 007F // INT2: Off
; 0000 0080 GICR|=(0<<INT1) | (1<<INT0) | (0<<INT2);
	IN   R30,0x3B
	ORI  R30,0x40
	OUT  0x3B,R30
; 0000 0081 MCUCR=(0<<ISC11) | (0<<ISC10) | (1<<ISC01) | (1<<ISC00);
	LDI  R30,LOW(3)
	OUT  0x35,R30
; 0000 0082 MCUCSR=(0<<ISC2);
	LDI  R30,LOW(0)
	OUT  0x34,R30
; 0000 0083 GIFR=(0<<INTF1) | (1<<INTF0) | (0<<INTF2);
	LDI  R30,LOW(64)
	OUT  0x3A,R30
; 0000 0084 
; 0000 0085 // USART initialization
; 0000 0086 // USART disabled
; 0000 0087 UCSRB=(0<<RXCIE) | (0<<TXCIE) | (0<<UDRIE) | (0<<RXEN) | (0<<TXEN) | (0<<UCSZ2) | (0<<RXB8) | (0<<TXB8);
	LDI  R30,LOW(0)
	OUT  0xA,R30
; 0000 0088 
; 0000 0089 // Analog Comparator initialization
; 0000 008A // Analog Comparator: Off
; 0000 008B // The Analog Comparator's positive input is
; 0000 008C // connected to the AIN0 pin
; 0000 008D // The Analog Comparator's negative input is
; 0000 008E // connected to the AIN1 pin
; 0000 008F ACSR=(1<<ACD) | (0<<ACBG) | (0<<ACO) | (0<<ACI) | (0<<ACIE) | (0<<ACIC) | (0<<ACIS1) | (0<<ACIS0);
	LDI  R30,LOW(128)
	OUT  0x8,R30
; 0000 0090 SFIOR=(0<<ACME);
	LDI  R30,LOW(0)
	OUT  0x30,R30
; 0000 0091 
; 0000 0092 // ADC initialization
; 0000 0093 // ADC disabled
; 0000 0094 ADCSRA=(0<<ADEN) | (0<<ADSC) | (0<<ADATE) | (0<<ADIF) | (0<<ADIE) | (0<<ADPS2) | (0<<ADPS1) | (0<<ADPS0);
	OUT  0x6,R30
; 0000 0095 
; 0000 0096 // SPI initialization
; 0000 0097 // SPI disabled
; 0000 0098 SPCR=(0<<SPIE) | (0<<SPE) | (0<<DORD) | (0<<MSTR) | (0<<CPOL) | (0<<CPHA) | (0<<SPR1) | (0<<SPR0);
	OUT  0xD,R30
; 0000 0099 
; 0000 009A // TWI initialization
; 0000 009B // TWI disabled
; 0000 009C TWCR=(0<<TWEA) | (0<<TWSTA) | (0<<TWSTO) | (0<<TWEN) | (0<<TWIE);
	OUT  0x36,R30
; 0000 009D 
; 0000 009E // Alphanumeric LCD initialization
; 0000 009F // Connections are specified in the
; 0000 00A0 // Project|Configure|C Compiler|Libraries|Alphanumeric LCD menu:
; 0000 00A1 // RS - PORTB Bit 0
; 0000 00A2 // RD - PORTB Bit 1
; 0000 00A3 // EN - PORTB Bit 2
; 0000 00A4 // D4 - PORTB Bit 4
; 0000 00A5 // D5 - PORTB Bit 5
; 0000 00A6 // D6 - PORTB Bit 6
; 0000 00A7 // D7 - PORTB Bit 7
; 0000 00A8 // Characters/line: 16
; 0000 00A9 lcd_init(16);
	LDI  R26,LOW(16)
	RCALL _lcd_init
; 0000 00AA lcd_gotoxy(0,0);
	LDI  R30,LOW(0)
	ST   -Y,R30
	LDI  R26,LOW(0)
	RCALL _lcd_gotoxy
; 0000 00AB lcd_puts(ligne1);
	LDI  R26,LOW(_ligne1)
	LDI  R27,HIGH(_ligne1)
	RCALL _lcd_puts
; 0000 00AC 
; 0000 00AD lcd_gotoxy(0,1);
	LDI  R30,LOW(0)
	ST   -Y,R30
	LDI  R26,LOW(1)
	RCALL _lcd_gotoxy
; 0000 00AE lcd_puts(ligne2);
	LDI  R26,LOW(_ligne2)
	LDI  R27,HIGH(_ligne2)
	RCALL _lcd_puts
; 0000 00AF // Globally enable interrupts
; 0000 00B0 #asm("sei")
	SEI
; 0000 00B1 
; 0000 00B2 while (1)
_0x5:
; 0000 00B3       {
; 0000 00B4       // Place your code here
; 0000 00B5       PORTA = touche;
	OUT  0x1B,R4
; 0000 00B6 
; 0000 00B7       // touche 1
; 0000 00B8       if(touche == 0xEE)
	LDI  R30,LOW(238)
	CP   R30,R4
	BRNE _0x8
; 0000 00B9         {
; 0000 00BA         lcd_gotoxy(14,0);
	RCALL SUBOPT_0x1
; 0000 00BB         lcd_putchar('E');
	RCALL SUBOPT_0x2
; 0000 00BC         lcd_gotoxy(15,0);
; 0000 00BD         lcd_putchar('E');
	RCALL SUBOPT_0x3
; 0000 00BE         lcd_gotoxy(14,1);
; 0000 00BF         lcd_putchar('1');
	LDI  R26,LOW(49)
	RCALL _lcd_putchar
; 0000 00C0         }
; 0000 00C1 
; 0000 00C2       // touche 2
; 0000 00C3       if(touche == 0xDE)
_0x8:
	LDI  R30,LOW(222)
	CP   R30,R4
	BRNE _0x9
; 0000 00C4         {
; 0000 00C5         lcd_gotoxy(14,0);
	RCALL SUBOPT_0x1
; 0000 00C6         lcd_putchar('D');
	RCALL SUBOPT_0x4
; 0000 00C7         lcd_gotoxy(15,0);
; 0000 00C8         lcd_putchar('E');
	RCALL SUBOPT_0x3
; 0000 00C9         lcd_gotoxy(14,1);
; 0000 00CA         lcd_putchar('2');
	LDI  R26,LOW(50)
	RCALL _lcd_putchar
; 0000 00CB         }
; 0000 00CC 
; 0000 00CD       // touche 3
; 0000 00CE       if(touche == 0xBE)
_0x9:
	LDI  R30,LOW(190)
	CP   R30,R4
	BRNE _0xA
; 0000 00CF         {
; 0000 00D0         lcd_gotoxy(14,0);
	RCALL SUBOPT_0x1
; 0000 00D1         lcd_putchar('B');
	RCALL SUBOPT_0x5
; 0000 00D2         lcd_gotoxy(15,0);
; 0000 00D3         lcd_putchar('E');
	RCALL SUBOPT_0x3
; 0000 00D4         lcd_gotoxy(14,1);
; 0000 00D5         lcd_putchar('3');
	LDI  R26,LOW(51)
	RCALL _lcd_putchar
; 0000 00D6         }
; 0000 00D7 
; 0000 00D8       // touche 4
; 0000 00D9       if(touche == 0xED)
_0xA:
	LDI  R30,LOW(237)
	CP   R30,R4
	BRNE _0xB
; 0000 00DA         {
; 0000 00DB         lcd_gotoxy(14,0);
	RCALL SUBOPT_0x1
; 0000 00DC         lcd_putchar('E');
	RCALL SUBOPT_0x2
; 0000 00DD         lcd_gotoxy(15,0);
; 0000 00DE         lcd_putchar('D');
	RCALL SUBOPT_0x6
; 0000 00DF         lcd_gotoxy(14,1);
; 0000 00E0         lcd_putchar('4');
	LDI  R26,LOW(52)
	RCALL _lcd_putchar
; 0000 00E1         }
; 0000 00E2 
; 0000 00E3       // touche 5
; 0000 00E4       if(touche == 0xDD)
_0xB:
	LDI  R30,LOW(221)
	CP   R30,R4
	BRNE _0xC
; 0000 00E5         {
; 0000 00E6         lcd_gotoxy(14,0);
	RCALL SUBOPT_0x1
; 0000 00E7         lcd_putchar('D');
	RCALL SUBOPT_0x4
; 0000 00E8         lcd_gotoxy(15,0);
; 0000 00E9         lcd_putchar('D');
	RCALL SUBOPT_0x6
; 0000 00EA         lcd_gotoxy(14,1);
; 0000 00EB         lcd_putchar('5');
	LDI  R26,LOW(53)
	RCALL _lcd_putchar
; 0000 00EC         }
; 0000 00ED 
; 0000 00EE       // touche 6
; 0000 00EF       if(touche == 0xBD)
_0xC:
	LDI  R30,LOW(189)
	CP   R30,R4
	BRNE _0xD
; 0000 00F0         {
; 0000 00F1         lcd_gotoxy(14,0);
	RCALL SUBOPT_0x1
; 0000 00F2         lcd_putchar('B');
	RCALL SUBOPT_0x5
; 0000 00F3         lcd_gotoxy(15,0);
; 0000 00F4         lcd_putchar('D');
	RCALL SUBOPT_0x6
; 0000 00F5         lcd_gotoxy(14,1);
; 0000 00F6         lcd_putchar('6');
	LDI  R26,LOW(54)
	RCALL _lcd_putchar
; 0000 00F7         }
; 0000 00F8 
; 0000 00F9       // touche 7
; 0000 00FA       if(touche == 0xEB)
_0xD:
	LDI  R30,LOW(235)
	CP   R30,R4
	BRNE _0xE
; 0000 00FB         {
; 0000 00FC         lcd_gotoxy(14,0);
	RCALL SUBOPT_0x1
; 0000 00FD         lcd_putchar('E');
	RCALL SUBOPT_0x2
; 0000 00FE         lcd_gotoxy(15,0);
; 0000 00FF         lcd_putchar('B');
	RCALL SUBOPT_0x7
; 0000 0100         lcd_gotoxy(14,1);
; 0000 0101         lcd_putchar('7');
	LDI  R26,LOW(55)
	RCALL _lcd_putchar
; 0000 0102         }
; 0000 0103 
; 0000 0104         // touche 8
; 0000 0105       if(touche == 0xDB)
_0xE:
	LDI  R30,LOW(219)
	CP   R30,R4
	BRNE _0xF
; 0000 0106         {
; 0000 0107         lcd_gotoxy(14,0);
	RCALL SUBOPT_0x1
; 0000 0108         lcd_putchar('D');
	RCALL SUBOPT_0x4
; 0000 0109         lcd_gotoxy(15,0);
; 0000 010A         lcd_putchar('B');
	RCALL SUBOPT_0x7
; 0000 010B         lcd_gotoxy(14,1);
; 0000 010C         lcd_putchar('8');
	LDI  R26,LOW(56)
	RCALL _lcd_putchar
; 0000 010D         }
; 0000 010E 
; 0000 010F       // touche 9
; 0000 0110       if(touche == 0xBB)
_0xF:
	LDI  R30,LOW(187)
	CP   R30,R4
	BRNE _0x10
; 0000 0111         {
; 0000 0112         lcd_gotoxy(14,0);
	RCALL SUBOPT_0x1
; 0000 0113         lcd_putchar('B');
	RCALL SUBOPT_0x5
; 0000 0114         lcd_gotoxy(15,0);
; 0000 0115         lcd_putchar('B');
	RCALL SUBOPT_0x7
; 0000 0116         lcd_gotoxy(14,1);
; 0000 0117         lcd_putchar('9');
	LDI  R26,LOW(57)
	RCALL _lcd_putchar
; 0000 0118         }
; 0000 0119 
; 0000 011A       // touche 0
; 0000 011B       if(touche == 0xE7)
_0x10:
	LDI  R30,LOW(231)
	CP   R30,R4
	BRNE _0x11
; 0000 011C         {
; 0000 011D         lcd_gotoxy(14,0);
	RCALL SUBOPT_0x1
; 0000 011E         lcd_putchar('E');
	RCALL SUBOPT_0x2
; 0000 011F         lcd_gotoxy(15,0);
; 0000 0120         lcd_putchar('7');
	RCALL SUBOPT_0x8
; 0000 0121         lcd_gotoxy(14,1);
; 0000 0122         lcd_putchar('0');
	LDI  R26,LOW(48)
	RCALL _lcd_putchar
; 0000 0123         }
; 0000 0124 
; 0000 0125       // touche A
; 0000 0126       if(touche == 0xD7)
_0x11:
	LDI  R30,LOW(215)
	CP   R30,R4
	BRNE _0x12
; 0000 0127         {
; 0000 0128         lcd_gotoxy(14,0);
	RCALL SUBOPT_0x1
; 0000 0129         lcd_putchar('D');
	RCALL SUBOPT_0x4
; 0000 012A         lcd_gotoxy(15,0);
; 0000 012B         lcd_putchar('7');
	RCALL SUBOPT_0x8
; 0000 012C         lcd_gotoxy(14,1);
; 0000 012D         lcd_putchar('A');
	LDI  R26,LOW(65)
	RCALL _lcd_putchar
; 0000 012E         }
; 0000 012F 
; 0000 0130       // touche B
; 0000 0131       if(touche == 0xB7)
_0x12:
	LDI  R30,LOW(183)
	CP   R30,R4
	BRNE _0x13
; 0000 0132         {
; 0000 0133         lcd_gotoxy(14,0);
	RCALL SUBOPT_0x1
; 0000 0134         lcd_putchar('B');
	RCALL SUBOPT_0x5
; 0000 0135         lcd_gotoxy(15,0);
; 0000 0136         lcd_putchar('7');
	RCALL SUBOPT_0x8
; 0000 0137         lcd_gotoxy(14,1);
; 0000 0138         lcd_putchar('B');
	LDI  R26,LOW(66)
	RCALL _lcd_putchar
; 0000 0139         }
; 0000 013A 
; 0000 013B       // touche C
; 0000 013C       if(touche == 0x7E)
_0x13:
	LDI  R30,LOW(126)
	CP   R30,R4
	BRNE _0x14
; 0000 013D         {
; 0000 013E         lcd_gotoxy(14,0);
	RCALL SUBOPT_0x1
; 0000 013F         lcd_putchar('7');
	RCALL SUBOPT_0x9
; 0000 0140         lcd_gotoxy(15,0);
; 0000 0141         lcd_putchar('E');
	RCALL SUBOPT_0x3
; 0000 0142         lcd_gotoxy(14,1);
; 0000 0143         lcd_putchar('C');
	LDI  R26,LOW(67)
	RCALL _lcd_putchar
; 0000 0144         }
; 0000 0145 
; 0000 0146       // touche D
; 0000 0147       if(touche == 0x7D)
_0x14:
	LDI  R30,LOW(125)
	CP   R30,R4
	BRNE _0x15
; 0000 0148         {
; 0000 0149         lcd_gotoxy(14,0);
	RCALL SUBOPT_0x1
; 0000 014A         lcd_putchar('7');
	RCALL SUBOPT_0x9
; 0000 014B         lcd_gotoxy(15,0);
; 0000 014C         lcd_putchar('D');
	RCALL SUBOPT_0x6
; 0000 014D         lcd_gotoxy(14,1);
; 0000 014E         lcd_putchar('D');
	LDI  R26,LOW(68)
	RCALL _lcd_putchar
; 0000 014F         }
; 0000 0150 
; 0000 0151       // touche E
; 0000 0152       if(touche == 0x7B)
_0x15:
	LDI  R30,LOW(123)
	CP   R30,R4
	BRNE _0x16
; 0000 0153         {
; 0000 0154         lcd_gotoxy(14,0);
	RCALL SUBOPT_0x1
; 0000 0155         lcd_putchar('7');
	RCALL SUBOPT_0x9
; 0000 0156         lcd_gotoxy(15,0);
; 0000 0157         lcd_putchar('B');
	RCALL SUBOPT_0x7
; 0000 0158         lcd_gotoxy(14,1);
; 0000 0159         lcd_putchar('E');
	LDI  R26,LOW(69)
	RCALL _lcd_putchar
; 0000 015A         }
; 0000 015B 
; 0000 015C       // touche F
; 0000 015D       if(touche == 0x77)
_0x16:
	LDI  R30,LOW(119)
	CP   R30,R4
	BRNE _0x17
; 0000 015E         {
; 0000 015F         lcd_gotoxy(14,0);
	RCALL SUBOPT_0x1
; 0000 0160         lcd_putchar('7');
	RCALL SUBOPT_0x9
; 0000 0161         lcd_gotoxy(15,0);
; 0000 0162         lcd_putchar('7');
	RCALL SUBOPT_0x8
; 0000 0163         lcd_gotoxy(14,1);
; 0000 0164         lcd_putchar('F');
	LDI  R26,LOW(70)
	RCALL _lcd_putchar
; 0000 0165         }
; 0000 0166       }
_0x17:
	RJMP _0x5
; 0000 0167 }
_0x18:
	RJMP _0x18
; .FEND
	#ifndef __SLEEP_DEFINED__
	#define __SLEEP_DEFINED__
	.EQU __se_bit=0x80
	.EQU __sm_mask=0x70
	.EQU __sm_powerdown=0x20
	.EQU __sm_powersave=0x30
	.EQU __sm_standby=0x60
	.EQU __sm_ext_standby=0x70
	.EQU __sm_adc_noise_red=0x10
	.SET power_ctrl_reg=mcucr
	#endif

	.DSEG

	.CSEG
__lcd_write_nibble_G100:
; .FSTART __lcd_write_nibble_G100
	ST   -Y,R17
	MOV  R17,R26
	IN   R30,0x18
	ANDI R30,LOW(0xF)
	MOV  R26,R30
	MOV  R30,R17
	ANDI R30,LOW(0xF0)
	OR   R30,R26
	OUT  0x18,R30
	__DELAY_USB 13
	SBI  0x18,2
	__DELAY_USB 13
	CBI  0x18,2
	__DELAY_USB 13
	RJMP _0x2080001
; .FEND
__lcd_write_data:
; .FSTART __lcd_write_data
	ST   -Y,R26
	LD   R26,Y
	RCALL __lcd_write_nibble_G100
    ld    r30,y
    swap  r30
    st    y,r30
	LD   R26,Y
	RCALL __lcd_write_nibble_G100
	__DELAY_USB 133
	ADIW R28,1
	RET
; .FEND
_lcd_gotoxy:
; .FSTART _lcd_gotoxy
	ST   -Y,R17
	ST   -Y,R16
	MOV  R17,R26
	LDD  R16,Y+2
	MOV  R30,R17
	LDI  R31,0
	SUBI R30,LOW(-__base_y_G100)
	SBCI R31,HIGH(-__base_y_G100)
	LD   R30,Z
	ADD  R30,R16
	MOV  R26,R30
	RCALL __lcd_write_data
	MOV  R7,R16
	MOV  R6,R17
	LDD  R17,Y+1
	LDD  R16,Y+0
	ADIW R28,3
	RET
; .FEND
_lcd_clear:
; .FSTART _lcd_clear
	LDI  R26,LOW(2)
	RCALL SUBOPT_0xA
	LDI  R26,LOW(12)
	RCALL __lcd_write_data
	LDI  R26,LOW(1)
	RCALL SUBOPT_0xA
	LDI  R30,LOW(0)
	MOV  R6,R30
	MOV  R7,R30
	RET
; .FEND
_lcd_putchar:
; .FSTART _lcd_putchar
	ST   -Y,R17
	MOV  R17,R26
	CPI  R17,10
	BREQ _0x2000005
	CP   R7,R9
	BRLO _0x2000004
_0x2000005:
	LDI  R30,LOW(0)
	ST   -Y,R30
	INC  R6
	MOV  R26,R6
	RCALL _lcd_gotoxy
	CPI  R17,10
	BREQ _0x2080001
_0x2000004:
	INC  R7
	SBI  0x18,0
	MOV  R26,R17
	RCALL __lcd_write_data
	CBI  0x18,0
	RJMP _0x2080001
; .FEND
_lcd_puts:
; .FSTART _lcd_puts
	RCALL __SAVELOCR4
	MOVW R18,R26
_0x2000008:
	MOVW R26,R18
	__ADDWRN 18,19,1
	LD   R30,X
	MOV  R17,R30
	CPI  R30,0
	BREQ _0x200000A
	MOV  R26,R17
	RCALL _lcd_putchar
	RJMP _0x2000008
_0x200000A:
	RCALL __LOADLOCR4
	ADIW R28,4
	RET
; .FEND
_lcd_init:
; .FSTART _lcd_init
	ST   -Y,R17
	MOV  R17,R26
	IN   R30,0x17
	ORI  R30,LOW(0xF0)
	OUT  0x17,R30
	SBI  0x17,2
	SBI  0x17,0
	SBI  0x17,1
	CBI  0x18,2
	CBI  0x18,0
	CBI  0x18,1
	MOV  R9,R17
	MOV  R30,R17
	SUBI R30,-LOW(128)
	__PUTB1MN __base_y_G100,2
	MOV  R30,R17
	SUBI R30,-LOW(192)
	__PUTB1MN __base_y_G100,3
	LDI  R26,LOW(20)
	LDI  R27,0
	RCALL _delay_ms
	RCALL SUBOPT_0xB
	RCALL SUBOPT_0xB
	RCALL SUBOPT_0xB
	LDI  R26,LOW(32)
	RCALL __lcd_write_nibble_G100
	__DELAY_USW 200
	LDI  R26,LOW(40)
	RCALL __lcd_write_data
	LDI  R26,LOW(4)
	RCALL __lcd_write_data
	LDI  R26,LOW(133)
	RCALL __lcd_write_data
	LDI  R26,LOW(6)
	RCALL __lcd_write_data
	RCALL _lcd_clear
_0x2080001:
	LD   R17,Y+
	RET
; .FEND
	#ifndef __SLEEP_DEFINED__
	#define __SLEEP_DEFINED__
	.EQU __se_bit=0x80
	.EQU __sm_mask=0x70
	.EQU __sm_powerdown=0x20
	.EQU __sm_powersave=0x30
	.EQU __sm_standby=0x60
	.EQU __sm_ext_standby=0x70
	.EQU __sm_adc_noise_red=0x10
	.SET power_ctrl_reg=mcucr
	#endif

	.CSEG

	.CSEG

	.CSEG

	.DSEG
_ligne1:
	.BYTE 0x11
_ligne2:
	.BYTE 0x11
__base_y_G100:
	.BYTE 0x4

	.CSEG
;OPTIMIZER ADDED SUBROUTINE, CALLED 2 TIMES, CODE SIZE REDUCTION:1 WORDS
SUBOPT_0x0:
	LDI  R30,LOW(15)
	OUT  0x14,R30
	LDI  R30,LOW(0)
	OUT  0x15,R30
	RET

;OPTIMIZER ADDED SUBROUTINE, CALLED 16 TIMES, CODE SIZE REDUCTION:43 WORDS
SUBOPT_0x1:
	LDI  R30,LOW(14)
	ST   -Y,R30
	LDI  R26,LOW(0)
	RJMP _lcd_gotoxy

;OPTIMIZER ADDED SUBROUTINE, CALLED 4 TIMES, CODE SIZE REDUCTION:13 WORDS
SUBOPT_0x2:
	LDI  R26,LOW(69)
	RCALL _lcd_putchar
	LDI  R30,LOW(15)
	ST   -Y,R30
	LDI  R26,LOW(0)
	RJMP _lcd_gotoxy

;OPTIMIZER ADDED SUBROUTINE, CALLED 4 TIMES, CODE SIZE REDUCTION:13 WORDS
SUBOPT_0x3:
	LDI  R26,LOW(69)
	RCALL _lcd_putchar
	LDI  R30,LOW(14)
	ST   -Y,R30
	LDI  R26,LOW(1)
	RJMP _lcd_gotoxy

;OPTIMIZER ADDED SUBROUTINE, CALLED 4 TIMES, CODE SIZE REDUCTION:13 WORDS
SUBOPT_0x4:
	LDI  R26,LOW(68)
	RCALL _lcd_putchar
	LDI  R30,LOW(15)
	ST   -Y,R30
	LDI  R26,LOW(0)
	RJMP _lcd_gotoxy

;OPTIMIZER ADDED SUBROUTINE, CALLED 4 TIMES, CODE SIZE REDUCTION:13 WORDS
SUBOPT_0x5:
	LDI  R26,LOW(66)
	RCALL _lcd_putchar
	LDI  R30,LOW(15)
	ST   -Y,R30
	LDI  R26,LOW(0)
	RJMP _lcd_gotoxy

;OPTIMIZER ADDED SUBROUTINE, CALLED 4 TIMES, CODE SIZE REDUCTION:13 WORDS
SUBOPT_0x6:
	LDI  R26,LOW(68)
	RCALL _lcd_putchar
	LDI  R30,LOW(14)
	ST   -Y,R30
	LDI  R26,LOW(1)
	RJMP _lcd_gotoxy

;OPTIMIZER ADDED SUBROUTINE, CALLED 4 TIMES, CODE SIZE REDUCTION:13 WORDS
SUBOPT_0x7:
	LDI  R26,LOW(66)
	RCALL _lcd_putchar
	LDI  R30,LOW(14)
	ST   -Y,R30
	LDI  R26,LOW(1)
	RJMP _lcd_gotoxy

;OPTIMIZER ADDED SUBROUTINE, CALLED 4 TIMES, CODE SIZE REDUCTION:13 WORDS
SUBOPT_0x8:
	LDI  R26,LOW(55)
	RCALL _lcd_putchar
	LDI  R30,LOW(14)
	ST   -Y,R30
	LDI  R26,LOW(1)
	RJMP _lcd_gotoxy

;OPTIMIZER ADDED SUBROUTINE, CALLED 4 TIMES, CODE SIZE REDUCTION:13 WORDS
SUBOPT_0x9:
	LDI  R26,LOW(55)
	RCALL _lcd_putchar
	LDI  R30,LOW(15)
	ST   -Y,R30
	LDI  R26,LOW(0)
	RJMP _lcd_gotoxy

;OPTIMIZER ADDED SUBROUTINE, CALLED 2 TIMES, CODE SIZE REDUCTION:1 WORDS
SUBOPT_0xA:
	RCALL __lcd_write_data
	LDI  R26,LOW(3)
	LDI  R27,0
	RJMP _delay_ms

;OPTIMIZER ADDED SUBROUTINE, CALLED 3 TIMES, CODE SIZE REDUCTION:8 WORDS
SUBOPT_0xB:
	LDI  R26,LOW(48)
	RCALL __lcd_write_nibble_G100
	__DELAY_USW 200
	RET

;RUNTIME LIBRARY

	.CSEG
__SAVELOCR4:
	ST   -Y,R19
__SAVELOCR3:
	ST   -Y,R18
__SAVELOCR2:
	ST   -Y,R17
	ST   -Y,R16
	RET

__LOADLOCR4:
	LDD  R19,Y+3
__LOADLOCR3:
	LDD  R18,Y+2
__LOADLOCR2:
	LDD  R17,Y+1
	LD   R16,Y
	RET

_delay_ms:
	adiw r26,0
	breq __delay_ms1
__delay_ms0:
	wdr
	__DELAY_USW 0x7D0
	sbiw r26,1
	brne __delay_ms0
__delay_ms1:
	ret

;END OF CODE MARKER
__END_OF_CODE:
